target datalayout = "e-m:e-p270:32:32-p271:32:32-p272:64:64-i64:64-i128:128-f80:128-n8:16:32:64-S128"
target triple = "x86_64-pc-linux-gnu"

%"struct.__cxxabiv1::__dynamic_cast_info" = type { ptr, ptr, ptr, i64, ptr, ptr, i32, i32, i32, i32, i32, i32, i32, i8, i8, i8, i8, ptr }
%"class.__cxxabiv1::__si_class_type_info" = type { %"class.__cxxabiv1::__class_type_info", ptr }
%"class.__cxxabiv1::__class_type_info" = type { %"class.__cxxabiv1::__shim_type_info" }
%"class.__cxxabiv1::__shim_type_info" = type { %"class.std::type_info" }
%"class.std::type_info" = type { ptr, ptr }

; Function Attrs: alwaysinline mustprogress nounwind uwtable
define linkonce_odr hidden noundef ptr @_ZNSt27__type_info_implementations18__string_impl_base21__type_name_to_stringB8ne210000EPKc(ptr noundef %0) #10 comdat align 2 {
  %2 = alloca ptr, align 8
  store ptr %0, ptr %2, align 8, !tbaa !38
  %3 = load ptr, ptr %2, align 8, !tbaa !38
  ret ptr %3
}

; Function Attrs: alwaysinline mustprogress nounwind uwtable
define linkonce_odr hidden noundef zeroext i1 @_ZNSt27__type_info_implementations13__unique_impl4__eqB8ne210000EPKcS2_(ptr noundef %0, ptr noundef %1) #10 comdat align 2 {
  %3 = alloca ptr, align 8
  %4 = alloca ptr, align 8
  store ptr %0, ptr %3, align 8, !tbaa !38
  store ptr %1, ptr %4, align 8, !tbaa !38
  %5 = load ptr, ptr %3, align 8, !tbaa !38
  %6 = load ptr, ptr %4, align 8, !tbaa !38
  %7 = icmp eq ptr %5, %6
  ret i1 %7
}

; Function Attrs: mustprogress nounwind uwtable
define linkonce_odr hidden noundef ptr @_ZNKSt9type_info4nameB8ne210000Ev(ptr noundef nonnull align 8 dereferenceable(16) %0) #1 comdat align 2 {
  %2 = alloca ptr, align 8
  store ptr %0, ptr %2, align 8, !tbaa !31
  %3 = load ptr, ptr %2, align 8
  %4 = getelementptr inbounds nuw %"class.std::type_info", ptr %3, i32 0, i32 1
  %5 = load ptr, ptr %4, align 8, !tbaa !81
  %6 = call noundef ptr @_ZNSt27__type_info_implementations18__string_impl_base21__type_name_to_stringB8ne210000EPKc(ptr noundef %5) #11
  ret ptr %6
}

; Function Attrs: mustprogress nounwind uwtable
define linkonce_odr hidden noundef zeroext i1 @_ZNKSt9type_infoeqB8ne210000ERKS_(ptr noundef nonnull align 8 dereferenceable(16) %0, ptr noundef nonnull align 8 dereferenceable(16) %1) #1 comdat align 2 {
  %3 = alloca ptr, align 8
  %4 = alloca ptr, align 8
  store ptr %0, ptr %3, align 8, !tbaa !31
  store ptr %1, ptr %4, align 8, !tbaa !31
  %5 = load ptr, ptr %3, align 8
  %6 = getelementptr inbounds nuw %"class.std::type_info", ptr %5, i32 0, i32 1
  %7 = load ptr, ptr %6, align 8, !tbaa !81
  %8 = load ptr, ptr %4, align 8, !tbaa !31
  %9 = getelementptr inbounds nuw %"class.std::type_info", ptr %8, i32 0, i32 1
  %10 = load ptr, ptr %9, align 8, !tbaa !81
  %11 = call noundef zeroext i1 @_ZNSt27__type_info_implementations13__unique_impl4__eqB8ne210000EPKcS2_(ptr noundef %7, ptr noundef %10) #11
  ret i1 %11
}

; Function Attrs: mustprogress nounwind uwtable
define hidden void @_ZNK10__cxxabiv117__class_type_info24process_found_base_classEPNS_19__dynamic_cast_infoEPvi(ptr noundef nonnull align 8 dereferenceable(16) %0, ptr noundef %1, ptr noundef %2, i32 noundef %3) #1 align 2 {
  %5 = alloca ptr, align 8
  %6 = alloca ptr, align 8
  %7 = alloca ptr, align 8
  %8 = alloca i32, align 4
  store ptr %0, ptr %5, align 8, !tbaa !17
  store ptr %1, ptr %6, align 8, !tbaa !68
  store ptr %2, ptr %7, align 8, !tbaa !37
  store i32 %3, ptr %8, align 4, !tbaa !70
  %9 = load ptr, ptr %6, align 8, !tbaa !68
  %10 = getelementptr inbounds nuw %"struct.__cxxabiv1::__dynamic_cast_info", ptr %9, i32 0, i32 9
  %11 = load i32, ptr %10, align 4, !tbaa !52
  %12 = icmp eq i32 %11, 0
  br i1 %12, label %13, label %27

13:                                               ; preds = %4
  %14 = load ptr, ptr %7, align 8, !tbaa !37
  %15 = load ptr, ptr %6, align 8, !tbaa !68
  %16 = getelementptr inbounds nuw %"struct.__cxxabiv1::__dynamic_cast_info", ptr %15, i32 0, i32 4
  store ptr %14, ptr %16, align 8, !tbaa !47
  %17 = load i32, ptr %8, align 4, !tbaa !70
  %18 = load ptr, ptr %6, align 8, !tbaa !68
  %19 = getelementptr inbounds nuw %"struct.__cxxabiv1::__dynamic_cast_info", ptr %18, i32 0, i32 6
  store i32 %17, ptr %19, align 8, !tbaa !49
  %20 = load ptr, ptr %6, align 8, !tbaa !68
  %21 = getelementptr inbounds nuw %"struct.__cxxabiv1::__dynamic_cast_info", ptr %20, i32 0, i32 17
  %22 = load ptr, ptr %21, align 8, !tbaa !60
  %23 = load ptr, ptr %6, align 8, !tbaa !68
  %24 = getelementptr inbounds nuw %"struct.__cxxabiv1::__dynamic_cast_info", ptr %23, i32 0, i32 5
  store ptr %22, ptr %24, align 8, !tbaa !48
  %25 = load ptr, ptr %6, align 8, !tbaa !68
  %26 = getelementptr inbounds nuw %"struct.__cxxabiv1::__dynamic_cast_info", ptr %25, i32 0, i32 9
  store i32 1, ptr %26, align 4, !tbaa !52
  br label %61

27:                                               ; preds = %4
  %28 = load ptr, ptr %6, align 8, !tbaa !68
  %29 = getelementptr inbounds nuw %"struct.__cxxabiv1::__dynamic_cast_info", ptr %28, i32 0, i32 5
  %30 = load ptr, ptr %29, align 8, !tbaa !48
  %31 = load ptr, ptr %6, align 8, !tbaa !68
  %32 = getelementptr inbounds nuw %"struct.__cxxabiv1::__dynamic_cast_info", ptr %31, i32 0, i32 17
  %33 = load ptr, ptr %32, align 8, !tbaa !60
  %34 = icmp eq ptr %30, %33
  br i1 %34, label %35, label %51

35:                                               ; preds = %27
  %36 = load ptr, ptr %6, align 8, !tbaa !68
  %37 = getelementptr inbounds nuw %"struct.__cxxabiv1::__dynamic_cast_info", ptr %36, i32 0, i32 4
  %38 = load ptr, ptr %37, align 8, !tbaa !47
  %39 = load ptr, ptr %7, align 8, !tbaa !37
  %40 = icmp eq ptr %38, %39
  br i1 %40, label %41, label %51

41:                                               ; preds = %35
  %42 = load ptr, ptr %6, align 8, !tbaa !68
  %43 = getelementptr inbounds nuw %"struct.__cxxabiv1::__dynamic_cast_info", ptr %42, i32 0, i32 6
  %44 = load i32, ptr %43, align 8, !tbaa !49
  %45 = icmp eq i32 %44, 2
  br i1 %45, label %46, label %50

46:                                               ; preds = %41
  %47 = load i32, ptr %8, align 4, !tbaa !70
  %48 = load ptr, ptr %6, align 8, !tbaa !68
  %49 = getelementptr inbounds nuw %"struct.__cxxabiv1::__dynamic_cast_info", ptr %48, i32 0, i32 6
  store i32 %47, ptr %49, align 8, !tbaa !49
  br label %50

50:                                               ; preds = %46, %41
  br label %60

51:                                               ; preds = %35, %27
  %52 = load ptr, ptr %6, align 8, !tbaa !68
  %53 = getelementptr inbounds nuw %"struct.__cxxabiv1::__dynamic_cast_info", ptr %52, i32 0, i32 9
  %54 = load i32, ptr %53, align 4, !tbaa !52
  %55 = add nsw i32 %54, 1
  store i32 %55, ptr %53, align 4, !tbaa !52
  %56 = load ptr, ptr %6, align 8, !tbaa !68
  %57 = getelementptr inbounds nuw %"struct.__cxxabiv1::__dynamic_cast_info", ptr %56, i32 0, i32 6
  store i32 2, ptr %57, align 8, !tbaa !49
  %58 = load ptr, ptr %6, align 8, !tbaa !68
  %59 = getelementptr inbounds nuw %"struct.__cxxabiv1::__dynamic_cast_info", ptr %58, i32 0, i32 15
  store i8 1, ptr %59, align 2, !tbaa !58
  br label %60

60:                                               ; preds = %51, %50
  br label %61

61:                                               ; preds = %60, %13
  ret void
}

; Function Attrs: inlinehint mustprogress nounwind uwtable
define internal noundef zeroext i1 @_ZL8is_equalPKSt9type_infoS1_b(ptr noundef %0, ptr noundef %1, i1 noundef zeroext %2) #5 {
  %4 = alloca i1, align 1
  %5 = alloca ptr, align 8
  %6 = alloca ptr, align 8
  %7 = alloca i8, align 1
  store ptr %0, ptr %5, align 8, !tbaa !31
  store ptr %1, ptr %6, align 8, !tbaa !31
  %8 = zext i1 %2 to i8
  store i8 %8, ptr %7, align 1, !tbaa !33
  %9 = load i8, ptr %7, align 1, !tbaa !33, !range !35, !noundef !36
  %10 = trunc i8 %9 to i1
  br i1 %10, label %15, label %11

11:                                               ; preds = %3
  %12 = load ptr, ptr %5, align 8, !tbaa !31
  %13 = load ptr, ptr %6, align 8, !tbaa !31
  %14 = call noundef zeroext i1 @_ZNKSt9type_infoeqB8ne210000ERKS_(ptr noundef nonnull align 8 dereferenceable(16) %12, ptr noundef nonnull align 8 dereferenceable(16) %13) #11
  store i1 %14, ptr %4, align 1
  br label %28

15:                                               ; preds = %3
  %16 = load ptr, ptr %5, align 8, !tbaa !31
  %17 = load ptr, ptr %6, align 8, !tbaa !31
  %18 = icmp eq ptr %16, %17
  br i1 %18, label %26, label %19

19:                                               ; preds = %15
  %20 = load ptr, ptr %5, align 8, !tbaa !31
  %21 = call noundef ptr @_ZNKSt9type_info4nameB8ne210000Ev(ptr noundef nonnull align 8 dereferenceable(16) %20) #11
  %22 = load ptr, ptr %6, align 8, !tbaa !31
  %23 = call noundef ptr @_ZNKSt9type_info4nameB8ne210000Ev(ptr noundef nonnull align 8 dereferenceable(16) %22) #11
  %24 = call i32 @strcmp(ptr noundef %21, ptr noundef %23) #14
  %25 = icmp eq i32 %24, 0
  br label %26

26:                                               ; preds = %19, %15
  %27 = phi i1 [ true, %15 ], [ %25, %19 ]
  store i1 %27, ptr %4, align 1
  br label %28

28:                                               ; preds = %26, %11
  %29 = load i1, ptr %4, align 1
  ret i1 %29
}

; Function Attrs: mustprogress uwtable
define hidden void @_ZNK10__cxxabiv120__si_class_type_info27has_unambiguous_public_baseEPNS_19__dynamic_cast_infoEPvi(ptr noundef nonnull align 8 dereferenceable(24) %0, ptr noundef %1, ptr noundef %2, i32 noundef %3) unnamed_addr #4 align 2 {
  %5 = alloca ptr, align 8
  %6 = alloca ptr, align 8
  %7 = alloca ptr, align 8
  %8 = alloca i32, align 4
  store ptr %0, ptr %5, align 8, !tbaa !19
  store ptr %1, ptr %6, align 8, !tbaa !68
  store ptr %2, ptr %7, align 8, !tbaa !37
  store i32 %3, ptr %8, align 4, !tbaa !70
  %9 = load ptr, ptr %5, align 8
  %10 = load ptr, ptr %6, align 8, !tbaa !68
  %11 = getelementptr inbounds nuw %"struct.__cxxabiv1::__dynamic_cast_info", ptr %10, i32 0, i32 2
  %12 = load ptr, ptr %11, align 8, !tbaa !45
  %13 = call noundef zeroext i1 @_ZL8is_equalPKSt9type_infoS1_b(ptr noundef %9, ptr noundef %12, i1 noundef zeroext false)
  br i1 %13, label %14, label %18

14:                                               ; preds = %4
  %15 = load ptr, ptr %6, align 8, !tbaa !68
  %16 = load ptr, ptr %7, align 8, !tbaa !37
  %17 = load i32, ptr %8, align 4, !tbaa !70
  call void @_ZNK10__cxxabiv117__class_type_info24process_found_base_classEPNS_19__dynamic_cast_infoEPvi(ptr noundef nonnull align 8 dereferenceable(16) %9, ptr noundef %15, ptr noundef %16, i32 noundef %17)
  br label %27

18:                                               ; preds = %4
  %19 = getelementptr inbounds nuw %"class.__cxxabiv1::__si_class_type_info", ptr %9, i32 0, i32 1
  %20 = load ptr, ptr %19, align 8, !tbaa !71
  %21 = load ptr, ptr %6, align 8, !tbaa !68
  %22 = load ptr, ptr %7, align 8, !tbaa !37
  %23 = load i32, ptr %8, align 4, !tbaa !70
  %24 = load ptr, ptr %20, align 8, !tbaa !61
  %25 = getelementptr inbounds ptr, ptr %24, i64 7
  %26 = load ptr, ptr %25, align 8
  call void %26(ptr noundef nonnull align 8 dereferenceable(16) %20, ptr noundef %21, ptr noundef %22, i32 noundef %23)
  br label %27

27:                                               ; preds = %18, %14
  ret void
}