; Function Attrs: mustprogress uwtable
define hidden void @_ZNK10__cxxabiv120__si_class_type_info27has_unambiguous_public_baseEPNS_19__dynamic_cast_infoEPvi(ptr noundef nonnull readonly align 8 captures(none) dereferenceable(24) %0, ptr noundef %1, ptr noundef %2, i32 noundef %3) unnamed_addr #7 align 2 {
  %5 = getelementptr inbounds nuw i8, ptr %1, i64 16
  %6 = load ptr, ptr %5, align 8, !tbaa !18
  %7 = getelementptr inbounds nuw i8, ptr %0, i64 8
  %8 = load ptr, ptr %7, align 8, !tbaa !4
  %9 = getelementptr inbounds nuw i8, ptr %6, i64 8
  %10 = load ptr, ptr %9, align 8, !tbaa !4
  %11 = icmp eq ptr %8, %10
  br i1 %11, label %12, label %41

12:                                               ; preds = %4
  %13 = getelementptr inbounds nuw i8, ptr %1, i64 60
  %14 = load i32, ptr %13, align 4, !tbaa !32
  %15 = icmp eq i32 %14, 0
  br i1 %15, label %16, label %22

16:                                               ; preds = %12
  %17 = getelementptr inbounds nuw i8, ptr %1, i64 32
  store ptr %2, ptr %17, align 8, !tbaa !26
  %18 = getelementptr inbounds nuw i8, ptr %1, i64 48
  store i32 %3, ptr %18, align 8, !tbaa !25
  %19 = getelementptr inbounds nuw i8, ptr %1, i64 80
  %20 = load ptr, ptr %19, align 8, !tbaa !21
  %21 = getelementptr inbounds nuw i8, ptr %1, i64 40
  store ptr %20, ptr %21, align 8, !tbaa !34
  store i32 1, ptr %13, align 4, !tbaa !32
  br label %_ZNK10__cxxabiv117__class_type_info24process_found_base_classEPNS_19__dynamic_cast_infoEPvi.exit

22:                                               ; preds = %12
  %23 = getelementptr inbounds nuw i8, ptr %1, i64 40
  %24 = load ptr, ptr %23, align 8, !tbaa !34
  %25 = getelementptr inbounds nuw i8, ptr %1, i64 80
  %26 = load ptr, ptr %25, align 8, !tbaa !21
  %27 = icmp eq ptr %24, %26
  br i1 %27, label %28, label %37

28:                                               ; preds = %22
  %29 = getelementptr inbounds nuw i8, ptr %1, i64 32
  %30 = load ptr, ptr %29, align 8, !tbaa !26
  %31 = icmp eq ptr %30, %2
  br i1 %31, label %32, label %37

32:                                               ; preds = %28
  %33 = getelementptr inbounds nuw i8, ptr %1, i64 48
  %34 = load i32, ptr %33, align 8, !tbaa !25
  %35 = icmp eq i32 %34, 2
  br i1 %35, label %36, label %_ZNK10__cxxabiv117__class_type_info24process_found_base_classEPNS_19__dynamic_cast_infoEPvi.exit

36:                                               ; preds = %32
  store i32 %3, ptr %33, align 8, !tbaa !25
  br label %_ZNK10__cxxabiv117__class_type_info24process_found_base_classEPNS_19__dynamic_cast_infoEPvi.exit

37:                                               ; preds = %28, %22
  %38 = add nsw i32 %14, 1
  store i32 %38, ptr %13, align 4, !tbaa !32
  %39 = getelementptr inbounds nuw i8, ptr %1, i64 48
  store i32 2, ptr %39, align 8, !tbaa !25
  %40 = getelementptr inbounds nuw i8, ptr %1, i64 78
  store i8 1, ptr %40, align 2, !tbaa !31
  br label %_ZNK10__cxxabiv117__class_type_info24process_found_base_classEPNS_19__dynamic_cast_infoEPvi.exit

41:                                               ; preds = %4
  %42 = getelementptr inbounds nuw i8, ptr %0, i64 16
  %43 = load ptr, ptr %42, align 8, !tbaa !35
  %44 = load ptr, ptr %43, align 8, !tbaa !23
  %45 = getelementptr inbounds nuw i8, ptr %44, i64 56
  %46 = load ptr, ptr %45, align 8
  tail call void %46(ptr noundef nonnull align 8 dereferenceable(16) %43, ptr noundef nonnull %1, ptr noundef %2, i32 noundef %3)
  br label %_ZNK10__cxxabiv117__class_type_info24process_found_base_classEPNS_19__dynamic_cast_infoEPvi.exit

_ZNK10__cxxabiv117__class_type_info24process_found_base_classEPNS_19__dynamic_cast_infoEPvi.exit: ; preds = %37, %36, %32, %16, %41
  ret void
}